target datalayout = "e-m:e-p270:32:32-p271:32:32-p272:64:64-i64:64-i128:128-f80:128-n8:16:32:64-S128"
target triple = "x86_64-pc-linux-gnu"

%class.V3ErrorCode = type { i8 }
%class.V3GraphVertex = type { ptr, %class.V3ListLinks.1, %class.V3List, %class.V3List.2, double, i32, i32, %union.anon.3 }
%class.V3ListLinks.1 = type { ptr, ptr }
%class.V3List = type { ptr, ptr }
%class.V3List.2 = type { ptr, ptr }
%union.anon.3 = type { ptr }
%class.V3GraphEdge = type { ptr, %class.V3ListLinks.0, %class.V3ListLinks.0, ptr, ptr, i32, i8, %union.anon }
%class.V3ListLinks.0 = type { ptr, ptr }
%union.anon = type { ptr }
%"class.V3List<V3GraphVertex, &V3GraphVertex::links>::SimpleItertatorImpl" = type { ptr }
%class.V3Graph = type { ptr, %class.V3List.18 }
%class.V3List.18 = type { ptr, ptr }
%"class.V3List<V3GraphEdge, &V3GraphEdge::oLinks>::SimpleItertatorImpl" = type { ptr }

@.str.89 = private unnamed_addr constant [111 x i8] c"generated/home/dtcxzyw/WorkSpace/Projects/compilers/llvm-opt-benchmark/bench/verilator/verilator/src/V3Graph.h\00", align 1
@.str.90 = private unnamed_addr constant [36 x i8] c"V3GraphEdge is not of expected type\00", align 1
@_ZZN9MTaskEdge11rttiClassIdEvE15aStaticVariable = linkonce_odr dso_local global i8 0, comdat, align 1

; Function Attrs: mustprogress nounwind uwtable
define linkonce_odr dso_local noundef i64 @_ZN9MTaskEdge11rttiClassIdEv() #5 comdat align 2 {
  ret i64 ptrtoint (ptr @_ZZN9MTaskEdge11rttiClassIdEvE15aStaticVariable to i64)
}

; Function Attrs: mustprogress nounwind uwtable
define linkonce_odr dso_local void @_ZN11V3ErrorCodeC2ENS_2enE(ptr noundef nonnull align 1 dereferenceable(1) %0, i8 noundef zeroext %1) unnamed_addr #5 comdat align 2 {
  %3 = alloca ptr, align 8
  %4 = alloca i8, align 1
  store ptr %0, ptr %3, align 8
  store i8 %1, ptr %4, align 1
  %5 = load ptr, ptr %3, align 8
  %6 = getelementptr inbounds %class.V3ErrorCode, ptr %5, i32 0, i32 0
  %7 = load i8, ptr %4, align 1
  store i8 %7, ptr %6, align 1
  ret void
}

; Function Attrs: mustprogress uwtable
define linkonce_odr dso_local noundef zeroext i1 @_ZNK11V3GraphEdge2isI9MTaskEdgeEEbv(ptr noundef nonnull align 8 dereferenceable(72) %0) #4 comdat align 2 {
  %2 = alloca ptr, align 8
  store ptr %0, ptr %2, align 8
  %3 = load ptr, ptr %2, align 8
  %4 = call noundef i64 @_ZN9MTaskEdge11rttiClassIdEv()
  %5 = load ptr, ptr %3, align 8
  %6 = getelementptr inbounds ptr, ptr %5, i64 0
  %7 = load ptr, ptr %6, align 8
  %8 = call noundef zeroext i1 %7(ptr noundef nonnull align 8 dereferenceable(72) %3, i64 noundef %4)
  ret i1 %8
}

; Function Attrs: mustprogress uwtable
define linkonce_odr dso_local noundef ptr @_ZN11V3GraphEdge2asI9MTaskEdgeEEPT_v(ptr noundef nonnull align 8 dereferenceable(72) %0) #4 comdat align 2 {
  %2 = alloca ptr, align 8
  %3 = alloca %class.V3ErrorCode, align 1
  store ptr %0, ptr %2, align 8
  %4 = load ptr, ptr %2, align 8
  br label %5

5:                                                ; preds = %1
  %6 = call noundef zeroext i1 @_ZNK11V3GraphEdge2isI9MTaskEdgeEEbv(ptr noundef nonnull align 8 dereferenceable(72) %4)
  %7 = xor i1 %6, true
  %8 = xor i1 %7, true
  %9 = xor i1 %8, true
  br i1 %9, label %10, label %16

10:                                               ; preds = %5
  call void @_ZN11V3ErrorCodeC2ENS_2enE(ptr noundef nonnull align 1 dereferenceable(1) %3, i8 noundef zeroext 4)
  %11 = getelementptr inbounds %class.V3ErrorCode, ptr %3, i32 0, i32 0
  %12 = load i8, ptr %11, align 1
  %13 = call noundef nonnull align 8 dereferenceable(112) ptr @_ZN7V3Error19v3errorPrepFileLineB5cxx11E11V3ErrorCodePKcib(i8 %12, ptr noundef @.str.89, i32 noundef 153, i1 noundef zeroext true)
  %14 = call noundef nonnull align 8 dereferenceable(112) ptr @_ZN7V3Error10v3errorStrB5cxx11Ev()
  %15 = call noundef nonnull align 8 dereferenceable(8) ptr @_ZStlsISt11char_traitsIcEERSt13basic_ostreamIcT_ES5_PKc(ptr noundef nonnull align 8 dereferenceable(8) %14, ptr noundef @.str.90)
  call void @_Z15v3errorEndFatalRNSt7__cxx1119basic_ostringstreamIcSt11char_traitsIcESaIcEEE(ptr noundef nonnull align 8 dereferenceable(112) %15) #17
  unreachable

16:                                               ; preds = %5
  br label %17

17:                                               ; preds = %16
  ret ptr %4
}

; Function Attrs: mustprogress nounwind uwtable
define linkonce_odr dso_local noundef nonnull align 8 dereferenceable(16) ptr @_ZN11V3GraphEdge6oLinksEv(ptr noundef nonnull align 8 dereferenceable(72) %0) #5 comdat align 2 {
  %2 = alloca ptr, align 8
  store ptr %0, ptr %2, align 8
  %3 = load ptr, ptr %2, align 8
  %4 = getelementptr inbounds %class.V3GraphEdge, ptr %3, i32 0, i32 1
  ret ptr %4
}

; Function Attrs: mustprogress uwtable
define linkonce_odr dso_local ptr @_ZN6V3ListI11V3GraphEdgeXadL_ZNS0_6oLinksEvEES0_E3endEv(ptr noundef nonnull align 8 dereferenceable(16) %0) #4 comdat align 2 {
  %2 = alloca ptr, align 8
  %3 = alloca ptr, align 8
  %4 = alloca %"class.V3List<V3GraphEdge, &V3GraphEdge::oLinks>::SimpleItertatorImpl", align 8
  %5 = alloca ptr, align 8
  store ptr %0, ptr %5, align 8
  store ptr %4, ptr %2, align 8
  store ptr null, ptr %3, align 8
  %6 = load ptr, ptr %2, align 8
  %7 = load ptr, ptr %3, align 8
  store ptr %7, ptr %6, align 8
  %8 = getelementptr inbounds %"class.V3List<V3GraphEdge, &V3GraphEdge::oLinks>::SimpleItertatorImpl", ptr %4, i32 0, i32 0
  %9 = load ptr, ptr %8, align 8
  ret ptr %9
}

; Function Attrs: mustprogress uwtable
define linkonce_odr dso_local ptr @_ZN6V3ListI11V3GraphEdgeXadL_ZNS0_6oLinksEvEES0_E5beginEv(ptr noundef nonnull align 8 dereferenceable(16) %0) #4 comdat align 2 {
  %2 = alloca ptr, align 8
  %3 = alloca ptr, align 8
  %4 = alloca %"class.V3List<V3GraphEdge, &V3GraphEdge::oLinks>::SimpleItertatorImpl", align 8
  %5 = alloca ptr, align 8
  store ptr %0, ptr %5, align 8
  %6 = load ptr, ptr %5, align 8
  %7 = getelementptr inbounds %class.V3List, ptr %6, i32 0, i32 0
  %8 = load ptr, ptr %7, align 8
  store ptr %4, ptr %2, align 8
  store ptr %8, ptr %3, align 8
  %9 = load ptr, ptr %2, align 8
  %10 = load ptr, ptr %3, align 8
  store ptr %10, ptr %9, align 8
  %11 = getelementptr inbounds %"class.V3List<V3GraphEdge, &V3GraphEdge::oLinks>::SimpleItertatorImpl", ptr %4, i32 0, i32 0
  %12 = load ptr, ptr %11, align 8
  ret ptr %12
}

; Function Attrs: mustprogress nounwind uwtable
define linkonce_odr dso_local noundef nonnull align 8 dereferenceable(16) ptr @_ZN13V3GraphVertex8outEdgesEv(ptr noundef nonnull align 8 dereferenceable(80) %0) #5 comdat align 2 {
  %2 = alloca ptr, align 8
  store ptr %0, ptr %2, align 8
  %3 = load ptr, ptr %2, align 8
  %4 = getelementptr inbounds %class.V3GraphVertex, ptr %3, i32 0, i32 2
  ret ptr %4
}

; Function Attrs: mustprogress nounwind uwtable
define linkonce_odr dso_local noundef nonnull align 8 dereferenceable(16) ptr @_ZN13V3GraphVertex5linksEv(ptr noundef nonnull align 8 dereferenceable(80) %0) #5 comdat align 2 {
  %2 = alloca ptr, align 8
  store ptr %0, ptr %2, align 8
  %3 = load ptr, ptr %2, align 8
  %4 = getelementptr inbounds %class.V3GraphVertex, ptr %3, i32 0, i32 1
  ret ptr %4
}

; Function Attrs: mustprogress uwtable
define linkonce_odr dso_local ptr @_ZN6V3ListI13V3GraphVertexXadL_ZNS0_5linksEvEES0_E3endEv(ptr noundef nonnull align 8 dereferenceable(16) %0) #4 comdat align 2 {
  %2 = alloca ptr, align 8
  %3 = alloca ptr, align 8
  %4 = alloca %"class.V3List<V3GraphVertex, &V3GraphVertex::links>::SimpleItertatorImpl", align 8
  %5 = alloca ptr, align 8
  store ptr %0, ptr %5, align 8
  store ptr %4, ptr %2, align 8
  store ptr null, ptr %3, align 8
  %6 = load ptr, ptr %2, align 8
  %7 = load ptr, ptr %3, align 8
  store ptr %7, ptr %6, align 8
  %8 = getelementptr inbounds %"class.V3List<V3GraphVertex, &V3GraphVertex::links>::SimpleItertatorImpl", ptr %4, i32 0, i32 0
  %9 = load ptr, ptr %8, align 8
  ret ptr %9
}

; Function Attrs: mustprogress uwtable
define linkonce_odr dso_local ptr @_ZN6V3ListI13V3GraphVertexXadL_ZNS0_5linksEvEES0_E5beginEv(ptr noundef nonnull align 8 dereferenceable(16) %0) #4 comdat align 2 {
  %2 = alloca ptr, align 8
  %3 = alloca ptr, align 8
  %4 = alloca %"class.V3List<V3GraphVertex, &V3GraphVertex::links>::SimpleItertatorImpl", align 8
  %5 = alloca ptr, align 8
  store ptr %0, ptr %5, align 8
  %6 = load ptr, ptr %5, align 8
  %7 = getelementptr inbounds %class.V3List.18, ptr %6, i32 0, i32 0
  %8 = load ptr, ptr %7, align 8
  store ptr %4, ptr %2, align 8
  store ptr %8, ptr %3, align 8
  %9 = load ptr, ptr %2, align 8
  %10 = load ptr, ptr %3, align 8
  store ptr %10, ptr %9, align 8
  %11 = getelementptr inbounds %"class.V3List<V3GraphVertex, &V3GraphVertex::links>::SimpleItertatorImpl", ptr %4, i32 0, i32 0
  %12 = load ptr, ptr %11, align 8
  ret ptr %12
}

; Function Attrs: mustprogress nounwind uwtable
define linkonce_odr dso_local noundef nonnull align 8 dereferenceable(16) ptr @_ZN7V3Graph8verticesEv(ptr noundef nonnull align 8 dereferenceable(24) %0) #5 comdat align 2 {
  %2 = alloca ptr, align 8
  store ptr %0, ptr %2, align 8
  %3 = load ptr, ptr %2, align 8
  %4 = getelementptr inbounds %class.V3Graph, ptr %3, i32 0, i32 1
  ret ptr %4
}

; Function Attrs: mustprogress uwtable
define internal void @_ZL21partInitCriticalPathsR7V3Graph(ptr noundef nonnull align 8 dereferenceable(24) %0) #4 {
  %2 = alloca ptr, align 8
  %3 = alloca ptr, align 8
  %4 = alloca ptr, align 8
  %5 = alloca ptr, align 8
  %6 = alloca ptr, align 8
  %7 = alloca ptr, align 8
  %8 = alloca ptr, align 8
  %9 = alloca ptr, align 8
  %10 = alloca ptr, align 8
  %11 = alloca ptr, align 8
  %12 = alloca ptr, align 8
  %13 = alloca ptr, align 8
  %14 = alloca ptr, align 8
  %15 = alloca ptr, align 8
  %16 = alloca ptr, align 8
  %17 = alloca ptr, align 8
  %18 = alloca ptr, align 8
  %19 = alloca ptr, align 8
  %20 = alloca ptr, align 8
  %21 = alloca ptr, align 8
  %22 = alloca ptr, align 8
  %23 = alloca ptr, align 8
  %24 = alloca %"class.V3List<V3GraphVertex, &V3GraphVertex::links>::SimpleItertatorImpl", align 8
  %25 = alloca %"class.V3List<V3GraphVertex, &V3GraphVertex::links>::SimpleItertatorImpl", align 8
  %26 = alloca ptr, align 8
  %27 = alloca ptr, align 8
  %28 = alloca %"class.V3List<V3GraphEdge, &V3GraphEdge::oLinks>::SimpleItertatorImpl", align 8
  %29 = alloca %"class.V3List<V3GraphEdge, &V3GraphEdge::oLinks>::SimpleItertatorImpl", align 8
  %30 = alloca ptr, align 8
  store ptr %0, ptr %22, align 8
  %31 = load ptr, ptr %22, align 8
  call void @_ZL25partInitHalfCriticalPathsILN8GraphWay2enE0EEvR7V3Graphb(ptr noundef nonnull align 8 dereferenceable(24) %31, i1 noundef zeroext false)
  %32 = load ptr, ptr %22, align 8
  call void @_ZL25partInitHalfCriticalPathsILN8GraphWay2enE1EEvR7V3Graphb(ptr noundef nonnull align 8 dereferenceable(24) %32, i1 noundef zeroext false)
  %33 = load ptr, ptr %22, align 8
  %34 = call noundef nonnull align 8 dereferenceable(16) ptr @_ZN7V3Graph8verticesEv(ptr noundef nonnull align 8 dereferenceable(24) %33)
  store ptr %34, ptr %23, align 8
  %35 = load ptr, ptr %23, align 8
  %36 = call ptr @_ZN6V3ListI13V3GraphVertexXadL_ZNS0_5linksEvEES0_E5beginEv(ptr noundef nonnull align 8 dereferenceable(16) %35)
  %37 = getelementptr inbounds %"class.V3List<V3GraphVertex, &V3GraphVertex::links>::SimpleItertatorImpl", ptr %24, i32 0, i32 0
  store ptr %36, ptr %37, align 8
  %38 = load ptr, ptr %23, align 8
  %39 = call ptr @_ZN6V3ListI13V3GraphVertexXadL_ZNS0_5linksEvEES0_E3endEv(ptr noundef nonnull align 8 dereferenceable(16) %38)
  %40 = getelementptr inbounds %"class.V3List<V3GraphVertex, &V3GraphVertex::links>::SimpleItertatorImpl", ptr %25, i32 0, i32 0
  store ptr %39, ptr %40, align 8
  br label %41

41:                                               ; preds = %105, %1
  store ptr %24, ptr %20, align 8
  store ptr %25, ptr %21, align 8
  %42 = load ptr, ptr %20, align 8
  %43 = load ptr, ptr %42, align 8
  %44 = load ptr, ptr %21, align 8
  %45 = load ptr, ptr %44, align 8
  %46 = icmp ne ptr %43, %45
  br i1 %46, label %47, label %112

47:                                               ; preds = %41
  store ptr %24, ptr %19, align 8
  %48 = load ptr, ptr %19, align 8
  %49 = load ptr, ptr %48, align 8
  store ptr %49, ptr %3, align 8
  %50 = load ptr, ptr %3, align 8
  store ptr %50, ptr %2, align 8
  %51 = load ptr, ptr %2, align 8
  %52 = call noundef nonnull align 8 dereferenceable(16) ptr @_ZN13V3GraphVertex5linksEv(ptr noundef nonnull align 8 dereferenceable(80) %51)
  %53 = load ptr, ptr %52, align 8
  %54 = load ptr, ptr %48, align 8
  store ptr %53, ptr %6, align 8
  store ptr %54, ptr %7, align 8
  %55 = load ptr, ptr %6, align 8
  %56 = icmp ne ptr %55, null
  br i1 %56, label %57, label %59

57:                                               ; preds = %47
  %58 = load ptr, ptr %6, align 8
  br label %61

59:                                               ; preds = %47
  %60 = load ptr, ptr %7, align 8
  br label %61

61:                                               ; preds = %59, %57
  %62 = phi ptr [ %58, %57 ], [ %60, %59 ]
  call void @llvm.prefetch.p0(ptr %62, i32 1, i32 3, i32 1)
  %63 = load ptr, ptr %48, align 8
  store ptr %63, ptr %26, align 8
  %64 = load ptr, ptr %26, align 8
  %65 = call noundef nonnull align 8 dereferenceable(16) ptr @_ZN13V3GraphVertex8outEdgesEv(ptr noundef nonnull align 8 dereferenceable(80) %64)
  store ptr %65, ptr %27, align 8
  %66 = load ptr, ptr %27, align 8
  %67 = call ptr @_ZN6V3ListI11V3GraphEdgeXadL_ZNS0_6oLinksEvEES0_E5beginEv(ptr noundef nonnull align 8 dereferenceable(16) %66)
  %68 = getelementptr inbounds %"class.V3List<V3GraphEdge, &V3GraphEdge::oLinks>::SimpleItertatorImpl", ptr %28, i32 0, i32 0
  store ptr %67, ptr %68, align 8
  %69 = load ptr, ptr %27, align 8
  %70 = call ptr @_ZN6V3ListI11V3GraphEdgeXadL_ZNS0_6oLinksEvEES0_E3endEv(ptr noundef nonnull align 8 dereferenceable(16) %69)
  %71 = getelementptr inbounds %"class.V3List<V3GraphEdge, &V3GraphEdge::oLinks>::SimpleItertatorImpl", ptr %29, i32 0, i32 0
  store ptr %70, ptr %71, align 8
  br label %72

72:                                               ; preds = %97, %61
  store ptr %28, ptr %16, align 8
  store ptr %29, ptr %17, align 8
  %73 = load ptr, ptr %16, align 8
  %74 = load ptr, ptr %73, align 8
  %75 = load ptr, ptr %17, align 8
  %76 = load ptr, ptr %75, align 8
  %77 = icmp ne ptr %74, %76
  br i1 %77, label %78, label %104

78:                                               ; preds = %72
  store ptr %28, ptr %15, align 8
  %79 = load ptr, ptr %15, align 8
  %80 = load ptr, ptr %79, align 8
  store ptr %80, ptr %10, align 8
  %81 = load ptr, ptr %10, align 8
  store ptr %81, ptr %9, align 8
  %82 = load ptr, ptr %9, align 8
  %83 = call noundef nonnull align 8 dereferenceable(16) ptr @_ZN11V3GraphEdge6oLinksEv(ptr noundef nonnull align 8 dereferenceable(72) %82)
  %84 = load ptr, ptr %83, align 8
  %85 = load ptr, ptr %79, align 8
  store ptr %84, ptr %12, align 8
  store ptr %85, ptr %13, align 8
  %86 = load ptr, ptr %12, align 8
  %87 = icmp ne ptr %86, null
  br i1 %87, label %88, label %90

88:                                               ; preds = %78
  %89 = load ptr, ptr %12, align 8
  br label %92

90:                                               ; preds = %78
  %91 = load ptr, ptr %13, align 8
  br label %92

92:                                               ; preds = %90, %88
  %93 = phi ptr [ %89, %88 ], [ %91, %90 ]
  call void @llvm.prefetch.p0(ptr %93, i32 1, i32 3, i32 1)
  %94 = load ptr, ptr %79, align 8
  store ptr %94, ptr %30, align 8
  %95 = load ptr, ptr %30, align 8
  %96 = call noundef ptr @_ZN11V3GraphEdge2asI9MTaskEdgeEEPT_v(ptr noundef nonnull align 8 dereferenceable(72) %95)
  call void @_ZN9MTaskEdge18resetCriticalPathsEv(ptr noundef nonnull align 8 dereferenceable(192) %96)
  br label %97

97:                                               ; preds = %92
  store ptr %28, ptr %14, align 8
  %98 = load ptr, ptr %14, align 8
  %99 = load ptr, ptr %98, align 8
  store ptr %99, ptr %11, align 8
  %100 = load ptr, ptr %11, align 8
  store ptr %100, ptr %8, align 8
  %101 = load ptr, ptr %8, align 8
  %102 = call noundef nonnull align 8 dereferenceable(16) ptr @_ZN11V3GraphEdge6oLinksEv(ptr noundef nonnull align 8 dereferenceable(72) %101)
  %103 = load ptr, ptr %102, align 8
  store ptr %103, ptr %98, align 8
  br label %72

104:                                              ; preds = %72
  br label %105

105:                                              ; preds = %104
  store ptr %24, ptr %18, align 8
  %106 = load ptr, ptr %18, align 8
  %107 = load ptr, ptr %106, align 8
  store ptr %107, ptr %5, align 8
  %108 = load ptr, ptr %5, align 8
  store ptr %108, ptr %4, align 8
  %109 = load ptr, ptr %4, align 8
  %110 = call noundef nonnull align 8 dereferenceable(16) ptr @_ZN13V3GraphVertex5linksEv(ptr noundef nonnull align 8 dereferenceable(80) %109)
  %111 = load ptr, ptr %110, align 8
  store ptr %111, ptr %106, align 8
  br label %41

112:                                              ; preds = %41
  ret void
}