; Function Attrs: mustprogress uwtable
define internal fastcc void @_ZL21partInitCriticalPathsR7V3Graph(ptr noundef nonnull align 8 dereferenceable(24) %0) unnamed_addr #4 {
  tail call fastcc void @_ZL25partInitHalfCriticalPathsILN8GraphWay2enE0EEvR7V3Graphb(ptr noundef nonnull align 8 dereferenceable(24) %0, i1 noundef zeroext false)
  tail call fastcc void @_ZL25partInitHalfCriticalPathsILN8GraphWay2enE1EEvR7V3Graphb(ptr noundef nonnull align 8 dereferenceable(24) %0, i1 noundef zeroext false)
  %2 = getelementptr inbounds i8, ptr %0, i64 8
  %.sroa.036.048 = load ptr, ptr %2, align 8
  %.not49 = icmp eq ptr %.sroa.036.048, null
  br i1 %.not49, label %._crit_edge, label %.lr.ph51

.loopexit.loopexit:                               ; preds = %_ZN11V3GraphEdge2asI9MTaskEdgeEEPT_v.exit
  %.sroa.036.0.pre = load ptr, ptr %3, align 8
  br label %.loopexit

.loopexit:                                        ; preds = %.loopexit.loopexit, %.lr.ph51
  %.sroa.036.0 = phi ptr [ %.sroa.036.0.pre, %.loopexit.loopexit ], [ %4, %.lr.ph51 ]
  %.not = icmp eq ptr %.sroa.036.0, null
  br i1 %.not, label %._crit_edge, label %.lr.ph51

.lr.ph51:                                         ; preds = %1, %.loopexit
  %.sroa.036.050 = phi ptr [ %.sroa.036.0, %.loopexit ], [ %.sroa.036.048, %1 ]
  %3 = getelementptr inbounds i8, ptr %.sroa.036.050, i64 8
  %4 = load ptr, ptr %3, align 8
  %.not42 = icmp eq ptr %4, null
  %5 = select i1 %.not42, ptr %.sroa.036.050, ptr %4
  tail call void @llvm.prefetch.p0(ptr nonnull %5, i32 1, i32 3, i32 1)
  %6 = getelementptr inbounds i8, ptr %.sroa.036.050, i64 24
  %.sroa.0.045 = load ptr, ptr %6, align 8
  %.not4346 = icmp eq ptr %.sroa.0.045, null
  br i1 %.not4346, label %.loopexit, label %.lr.ph

.lr.ph:                                           ; preds = %.lr.ph51, %_ZN11V3GraphEdge2asI9MTaskEdgeEEPT_v.exit
  %.sroa.0.047 = phi ptr [ %.sroa.0.0, %_ZN11V3GraphEdge2asI9MTaskEdgeEEPT_v.exit ], [ %.sroa.0.045, %.lr.ph51 ]
  %7 = getelementptr inbounds i8, ptr %.sroa.0.047, i64 8
  %8 = load ptr, ptr %7, align 8
  %.not44 = icmp eq ptr %8, null
  %9 = select i1 %.not44, ptr %.sroa.0.047, ptr %8
  tail call void @llvm.prefetch.p0(ptr nonnull %9, i32 1, i32 3, i32 1)
  %10 = load ptr, ptr %.sroa.0.047, align 8
  %11 = load ptr, ptr %10, align 8
  %12 = tail call noundef zeroext i1 %11(ptr noundef nonnull align 8 dereferenceable(72) %.sroa.0.047, i64 noundef ptrtoint (ptr @_ZZN9MTaskEdge11rttiClassIdEvE15aStaticVariable to i64))
  br i1 %12, label %_ZN11V3GraphEdge2asI9MTaskEdgeEEPT_v.exit, label %13

13:                                               ; preds = %.lr.ph
  %14 = tail call noundef nonnull align 8 dereferenceable(112) ptr @_ZN7V3Error19v3errorPrepFileLineB5cxx11E11V3ErrorCodePKcib(i8 4, ptr noundef nonnull @.str.89, i32 noundef 153, i1 noundef zeroext true)
  %15 = tail call noundef nonnull align 8 dereferenceable(112) ptr @_ZN7V3Error10v3errorStrB5cxx11Ev()
  %16 = tail call noundef nonnull align 8 dereferenceable(8) ptr @_ZStlsISt11char_traitsIcEERSt13basic_ostreamIcT_ES5_PKc(ptr noundef nonnull align 8 dereferenceable(8) %15, ptr noundef nonnull @.str.90)
  tail call void @_Z15v3errorEndFatalRNSt7__cxx1119basic_ostringstreamIcSt11char_traitsIcESaIcEEE(ptr noundef nonnull align 8 dereferenceable(112) %16) #26
  unreachable

_ZN11V3GraphEdge2asI9MTaskEdgeEEPT_v.exit:        ; preds = %.lr.ph
  tail call void @_ZN9MTaskEdge18resetCriticalPathsEv(ptr noundef nonnull align 8 dereferenceable(192) %.sroa.0.047)
  %.sroa.0.0 = load ptr, ptr %7, align 8
  %.not43 = icmp eq ptr %.sroa.0.0, null
  br i1 %.not43, label %.loopexit.loopexit, label %.lr.ph

._crit_edge:                                      ; preds = %.loopexit, %1
  ret void
}